target datalayout = "e-m:e-p270:32:32-p271:32:32-p272:64:64-i64:64-i128:128-f80:128-n8:16:32:64-S128"
target triple = "x86_64-pc-linux-gnu"

%struct.H5D_t = type { %struct.H5O_loc_t, %struct.H5G_name_t, ptr }
%struct.H5O_loc_t = type { ptr, i64, i8 }
%struct.H5G_name_t = type { ptr, ptr, i32 }
%struct.H5D_shared_t = type { i64, i8, i64, ptr, ptr, i64, i64, %struct.H5D_dcpl_cache_t, %struct.H5O_layout_t, i8, i32, [32 x i64], [32 x i64], [32 x i64], %struct.anon.6, %struct.H5D_append_flush_t, ptr, ptr }
%struct.H5D_dcpl_cache_t = type { %struct.H5O_fill_t, %struct.H5O_pline_t, %struct.H5O_efl_t }
%struct.H5O_fill_t = type { %struct.H5O_shared_t, i32, ptr, i64, ptr, i32, i32, i8 }
%struct.H5O_shared_t = type { i32, ptr, i32, %union.anon.5 }
%union.anon.5 = type { %struct.H5O_mesg_loc_t }
%struct.H5O_mesg_loc_t = type { i32, i64 }
%struct.H5O_pline_t = type { %struct.H5O_shared_t, i32, i64, i64, ptr }
%struct.H5O_efl_t = type { i64, i64, i64, ptr }
%struct.H5O_layout_t = type { i32, i32, ptr, %union.anon, %struct.H5O_storage_t }
%union.anon = type { %struct.H5O_layout_chunk_t }
%struct.H5O_layout_chunk_t = type { i32, i8, i32, [33 x i32], i32, i32, i64, i64, [33 x i64], [33 x i64], [33 x i64], [33 x i64], %union.anon.0 }
%union.anon.0 = type { %struct.H5O_layout_chunk_earray_t }
%struct.H5O_layout_chunk_earray_t = type { %struct.anon.1, i32, [33 x i32], [33 x i64], [33 x i64] }
%struct.anon.1 = type { i8, i8, i8, i8, i8 }
%struct.H5O_storage_t = type { i32, %union.anon.3 }
%union.anon.3 = type { %struct.H5O_storage_virtual_t }
%struct.H5O_storage_virtual_t = type { %struct.H5HG_t, i64, ptr, i64, [32 x i64], i32, i64, i64, i64, i8 }
%struct.H5HG_t = type { i64, i64 }
%struct.anon.6 = type { %struct.H5D_rdcdc_t, %struct.H5D_rdcc_t }
%struct.H5D_rdcdc_t = type { ptr, i64, i64, i64, i8 }
%struct.H5D_rdcc_t = type { %struct.anon.7, i64, i64, double, ptr, ptr, ptr, i64, i32, %struct.H5D_chunk_cached_t, ptr, ptr, ptr, ptr, [32 x i64], [32 x i64], [32 x i32] }
%struct.anon.7 = type { i32, i32, i32, i32 }
%struct.H5D_chunk_cached_t = type { i8, [33 x i64], i64, i32, i64, i32 }
%struct.H5D_append_flush_t = type { i32, [32 x i64], ptr, ptr }
%struct.H5O_storage_virtual_ent_t = type { %struct.H5O_storage_virtual_srcdset_t, ptr, ptr, ptr, ptr, i64, i64, i64, i64, ptr, i64, i64, ptr, i64, i64, i32, i32, i64, i64, i64, i64, i32, i32 }
%struct.H5O_storage_virtual_srcdset_t = type { ptr, ptr, ptr, ptr, ptr, ptr, i8, ptr }

@H5D_init_g = external global i8, align 1
@H5_libterm_g = external global i8, align 1
@.str.1 = private unnamed_addr constant [104 x i8] c"generated/home/dtcxzyw/WorkSpace/Projects/compilers/llvm-opt-benchmark/bench/hdf5/hdf5/src/H5Dvirtual.c\00", align 1
@H5E_DATASET_g = external global i64, align 8
@__func__.H5D__virtual_refresh_source_dsets = private unnamed_addr constant [34 x i8] c"H5D__virtual_refresh_source_dsets\00", align 1
@H5E_CANTFLUSH_g = external global i64, align 8
@.str.71 = private unnamed_addr constant [33 x i8] c"unable to refresh source dataset\00", align 1

; Function Attrs: nounwind uwtable
define i32 @H5D__virtual_refresh_source_dsets(ptr noundef %0) #0 {
  %2 = alloca i32, align 4
  %3 = alloca ptr, align 8
  %4 = alloca ptr, align 8
  %5 = alloca i64, align 8
  %6 = alloca i32, align 4
  %7 = alloca i8, align 1
  %8 = alloca i64, align 8
  %9 = alloca i32, align 4
  store ptr %0, ptr %3, align 8, !tbaa !8
  call void @llvm.lifetime.start.p0(i64 8, ptr %4) #10
  call void @llvm.lifetime.start.p0(i64 8, ptr %5) #10
  call void @llvm.lifetime.start.p0(i64 4, ptr %6) #10
  store i32 0, ptr %6, align 4, !tbaa !12
  call void @llvm.lifetime.start.p0(i64 1, ptr %7) #10
  store i8 0, ptr %7, align 1, !tbaa !14
  %10 = load i8, ptr @H5D_init_g, align 1, !tbaa !14, !range !16, !noundef !17
  %11 = trunc i8 %10 to i1
  br i1 %11, label %16, label %12

12:                                               ; preds = %1
  %13 = load i8, ptr @H5_libterm_g, align 1, !tbaa !14, !range !16, !noundef !17
  %14 = trunc i8 %13 to i1
  %15 = xor i1 %14, true
  br label %16

16:                                               ; preds = %12, %1
  %17 = phi i1 [ true, %1 ], [ %15, %12 ]
  %18 = xor i1 %17, true
  %19 = xor i1 %18, true
  %20 = zext i1 %19 to i32
  %21 = sext i32 %20 to i64
  %22 = call i64 @llvm.expect.i64(i64 %21, i64 1)
  %23 = icmp ne i64 %22, 0
  br i1 %23, label %24, label %167

24:                                               ; preds = %16
  %25 = load ptr, ptr %3, align 8, !tbaa !8
  %26 = getelementptr inbounds nuw %struct.H5D_t, ptr %25, i32 0, i32 2
  %27 = load ptr, ptr %26, align 8, !tbaa !18
  %28 = getelementptr inbounds nuw %struct.H5D_shared_t, ptr %27, i32 0, i32 8
  %29 = getelementptr inbounds nuw %struct.H5O_layout_t, ptr %28, i32 0, i32 4
  %30 = getelementptr inbounds nuw %struct.H5O_storage_t, ptr %29, i32 0, i32 1
  store ptr %30, ptr %4, align 8, !tbaa !24
  store i64 0, ptr %5, align 8, !tbaa !10
  br label %31

31:                                               ; preds = %162, %24
  %32 = load i64, ptr %5, align 8, !tbaa !10
  %33 = load ptr, ptr %4, align 8, !tbaa !24
  %34 = getelementptr inbounds nuw %struct.H5O_storage_virtual_t, ptr %33, i32 0, i32 1
  %35 = load i64, ptr %34, align 8, !tbaa !26
  %36 = icmp ult i64 %32, %35
  br i1 %36, label %37, label %165

37:                                               ; preds = %31
  %38 = load ptr, ptr %4, align 8, !tbaa !24
  %39 = getelementptr inbounds nuw %struct.H5O_storage_virtual_t, ptr %38, i32 0, i32 2
  %40 = load ptr, ptr %39, align 8, !tbaa !30
  %41 = load i64, ptr %5, align 8, !tbaa !10
  %42 = getelementptr inbounds nuw %struct.H5O_storage_virtual_ent_t, ptr %40, i64 %41
  %43 = getelementptr inbounds nuw %struct.H5O_storage_virtual_ent_t, ptr %42, i32 0, i32 11
  %44 = load i64, ptr %43, align 8, !tbaa !77
  %45 = icmp ne i64 %44, 0
  br i1 %45, label %55, label %46

46:                                               ; preds = %37
  %47 = load ptr, ptr %4, align 8, !tbaa !24
  %48 = getelementptr inbounds nuw %struct.H5O_storage_virtual_t, ptr %47, i32 0, i32 2
  %49 = load ptr, ptr %48, align 8, !tbaa !30
  %50 = load i64, ptr %5, align 8, !tbaa !10
  %51 = getelementptr inbounds nuw %struct.H5O_storage_virtual_ent_t, ptr %49, i64 %50
  %52 = getelementptr inbounds nuw %struct.H5O_storage_virtual_ent_t, ptr %51, i32 0, i32 14
  %53 = load i64, ptr %52, align 8, !tbaa !78
  %54 = icmp ne i64 %53, 0
  br i1 %54, label %55, label %120

55:                                               ; preds = %46, %37
  call void @llvm.lifetime.start.p0(i64 8, ptr %8) #10
  store i64 0, ptr %8, align 8, !tbaa !10
  br label %56

56:                                               ; preds = %113, %55
  %57 = load i64, ptr %8, align 8, !tbaa !10
  %58 = load ptr, ptr %4, align 8, !tbaa !24
  %59 = getelementptr inbounds nuw %struct.H5O_storage_virtual_t, ptr %58, i32 0, i32 2
  %60 = load ptr, ptr %59, align 8, !tbaa !30
  %61 = load i64, ptr %5, align 8, !tbaa !10
  %62 = getelementptr inbounds nuw %struct.H5O_storage_virtual_ent_t, ptr %60, i64 %61
  %63 = getelementptr inbounds nuw %struct.H5O_storage_virtual_ent_t, ptr %62, i32 0, i32 6
  %64 = load i64, ptr %63, align 8, !tbaa !124
  %65 = icmp ult i64 %57, %64
  br i1 %65, label %66, label %116

66:                                               ; preds = %56
  %67 = load ptr, ptr %4, align 8, !tbaa !24
  %68 = getelementptr inbounds nuw %struct.H5O_storage_virtual_t, ptr %67, i32 0, i32 2
  %69 = load ptr, ptr %68, align 8, !tbaa !30
  %70 = load i64, ptr %5, align 8, !tbaa !10
  %71 = getelementptr inbounds nuw %struct.H5O_storage_virtual_ent_t, ptr %69, i64 %70
  %72 = getelementptr inbounds nuw %struct.H5O_storage_virtual_ent_t, ptr %71, i32 0, i32 4
  %73 = load ptr, ptr %72, align 8, !tbaa !81
  %74 = load i64, ptr %8, align 8, !tbaa !10
  %75 = getelementptr inbounds nuw %struct.H5O_storage_virtual_srcdset_t, ptr %73, i64 %74
  %76 = getelementptr inbounds nuw %struct.H5O_storage_virtual_srcdset_t, ptr %75, i32 0, i32 5
  %77 = load ptr, ptr %76, align 8, !tbaa !82
  %78 = icmp ne ptr %77, null
  br i1 %78, label %79, label %112

79:                                               ; preds = %66
  %80 = load ptr, ptr %4, align 8, !tbaa !24
  %81 = getelementptr inbounds nuw %struct.H5O_storage_virtual_t, ptr %80, i32 0, i32 2
  %82 = load ptr, ptr %81, align 8, !tbaa !30
  %83 = load i64, ptr %5, align 8, !tbaa !10
  %84 = getelementptr inbounds nuw %struct.H5O_storage_virtual_ent_t, ptr %82, i64 %83
  %85 = getelementptr inbounds nuw %struct.H5O_storage_virtual_ent_t, ptr %84, i32 0, i32 4
  %86 = load ptr, ptr %85, align 8, !tbaa !81
  %87 = load i64, ptr %8, align 8, !tbaa !10
  %88 = getelementptr inbounds nuw %struct.H5O_storage_virtual_srcdset_t, ptr %86, i64 %87
  %89 = getelementptr inbounds nuw %struct.H5O_storage_virtual_srcdset_t, ptr %88, i32 0, i32 5
  %90 = call i32 @H5D__virtual_refresh_source_dset(ptr noundef %89)
  %91 = icmp slt i32 %90, 0
  br i1 %91, label %92, label %111

92:                                               ; preds = %79
  br label %93

93:                                               ; preds = %92
  br label %94

94:                                               ; preds = %93
  br label %95

95:                                               ; preds = %94
  %96 = load i64, ptr @H5E_DATASET_g, align 8, !tbaa !10
  %97 = load i64, ptr @H5E_CANTFLUSH_g, align 8, !tbaa !10
  %98 = call i32 (ptr, ptr, i32, i64, i64, ptr, ...) @H5E_printf_stack(ptr noundef @.str.1, ptr noundef @__func__.H5D__virtual_refresh_source_dsets, i32 noundef 3177, i64 noundef %96, i64 noundef %97, ptr noundef @.str.71)
  br label %99

99:                                               ; preds = %95
  br label %100

100:                                              ; preds = %99
  store i8 1, ptr %7, align 1, !tbaa !14
  %101 = load i8, ptr %7, align 1, !tbaa !14, !range !16, !noundef !17
  %102 = trunc i8 %101 to i1
  %103 = zext i1 %102 to i8
  store i8 %103, ptr %7, align 1, !tbaa !14
  br label %104

104:                                              ; preds = %100
  br label %105

105:                                              ; preds = %104
  br label %106

106:                                              ; preds = %105
  store i32 -1, ptr %6, align 4, !tbaa !12
  store i32 16, ptr %9, align 4
  br label %117

107:                                              ; No predecessors!
  br label %108

108:                                              ; preds = %107
  br label %109

109:                                              ; preds = %108
  br label %110

110:                                              ; preds = %109
  br label %111

111:                                              ; preds = %110, %79
  br label %112

112:                                              ; preds = %111, %66
  br label %113

113:                                              ; preds = %112
  %114 = load i64, ptr %8, align 8, !tbaa !10
  %115 = add i64 %114, 1
  store i64 %115, ptr %8, align 8, !tbaa !10
  br label %56, !llvm.loop !201

116:                                              ; preds = %56
  store i32 0, ptr %9, align 4
  br label %117

117:                                              ; preds = %106, %116
  call void @llvm.lifetime.end.p0(i64 8, ptr %8) #10
  %118 = load i32, ptr %9, align 4
  switch i32 %118, label %169 [
    i32 0, label %119
    i32 16, label %166
  ]

119:                                              ; preds = %117
  br label %161

120:                                              ; preds = %46
  %121 = load ptr, ptr %4, align 8, !tbaa !24
  %122 = getelementptr inbounds nuw %struct.H5O_storage_virtual_t, ptr %121, i32 0, i32 2
  %123 = load ptr, ptr %122, align 8, !tbaa !30
  %124 = load i64, ptr %5, align 8, !tbaa !10
  %125 = getelementptr inbounds nuw %struct.H5O_storage_virtual_ent_t, ptr %123, i64 %124
  %126 = getelementptr inbounds nuw %struct.H5O_storage_virtual_ent_t, ptr %125, i32 0, i32 0
  %127 = getelementptr inbounds nuw %struct.H5O_storage_virtual_srcdset_t, ptr %126, i32 0, i32 5
  %128 = load ptr, ptr %127, align 8, !tbaa !87
  %129 = icmp ne ptr %128, null
  br i1 %129, label %130, label %160

130:                                              ; preds = %120
  %131 = load ptr, ptr %4, align 8, !tbaa !24
  %132 = getelementptr inbounds nuw %struct.H5O_storage_virtual_t, ptr %131, i32 0, i32 2
  %133 = load ptr, ptr %132, align 8, !tbaa !30
  %134 = load i64, ptr %5, align 8, !tbaa !10
  %135 = getelementptr inbounds nuw %struct.H5O_storage_virtual_ent_t, ptr %133, i64 %134
  %136 = getelementptr inbounds nuw %struct.H5O_storage_virtual_ent_t, ptr %135, i32 0, i32 0
  %137 = getelementptr inbounds nuw %struct.H5O_storage_virtual_srcdset_t, ptr %136, i32 0, i32 5
  %138 = call i32 @H5D__virtual_refresh_source_dset(ptr noundef %137)
  %139 = icmp slt i32 %138, 0
  br i1 %139, label %140, label %159

140:                                              ; preds = %130
  br label %141

141:                                              ; preds = %140
  br label %142

142:                                              ; preds = %141
  br label %143

143:                                              ; preds = %142
  %144 = load i64, ptr @H5E_DATASET_g, align 8, !tbaa !10
  %145 = load i64, ptr @H5E_CANTFLUSH_g, align 8, !tbaa !10
  %146 = call i32 (ptr, ptr, i32, i64, i64, ptr, ...) @H5E_printf_stack(ptr noundef @.str.1, ptr noundef @__func__.H5D__virtual_refresh_source_dsets, i32 noundef 3184, i64 noundef %144, i64 noundef %145, ptr noundef @.str.71)
  br label %147

147:                                              ; preds = %143
  br label %148

148:                                              ; preds = %147
  store i8 1, ptr %7, align 1, !tbaa !14
  %149 = load i8, ptr %7, align 1, !tbaa !14, !range !16, !noundef !17
  %150 = trunc i8 %149 to i1
  %151 = zext i1 %150 to i8
  store i8 %151, ptr %7, align 1, !tbaa !14
  br label %152

152:                                              ; preds = %148
  br label %153

153:                                              ; preds = %152
  br label %154

154:                                              ; preds = %153
  store i32 -1, ptr %6, align 4, !tbaa !12
  br label %166

155:                                              ; No predecessors!
  br label %156

156:                                              ; preds = %155
  br label %157

157:                                              ; preds = %156
  br label %158

158:                                              ; preds = %157
  br label %159

159:                                              ; preds = %158, %130
  br label %160

160:                                              ; preds = %159, %120
  br label %161

161:                                              ; preds = %160, %119
  br label %162

162:                                              ; preds = %161
  %163 = load i64, ptr %5, align 8, !tbaa !10
  %164 = add i64 %163, 1
  store i64 %164, ptr %5, align 8, !tbaa !10
  br label %31, !llvm.loop !202

165:                                              ; preds = %31
  br label %166

166:                                              ; preds = %165, %117, %154
  br label %167

167:                                              ; preds = %166, %16
  %168 = load i32, ptr %6, align 4, !tbaa !12
  store i32 %168, ptr %2, align 4
  store i32 1, ptr %9, align 4
  br label %169

169:                                              ; preds = %167, %117
  call void @llvm.lifetime.end.p0(i64 1, ptr %7) #10
  call void @llvm.lifetime.end.p0(i64 4, ptr %6) #10
  call void @llvm.lifetime.end.p0(i64 8, ptr %5) #10
  call void @llvm.lifetime.end.p0(i64 8, ptr %4) #10
  %170 = load i32, ptr %2, align 4
  ret i32 %170
}